target datalayout = "e-m:e-p270:32:32-p271:32:32-p272:64:64-i64:64-i128:128-f80:128-n8:16:32:64-S128"
target triple = "x86_64-pc-linux-gnu"

%"class.gmx::EnergyGroupsPerCluster" = type { i32, %"class.std::vector", i32, i32 }
%"class.std::vector" = type { %"struct.std::_Vector_base" }
%"struct.std::_Vector_base" = type { %"struct.std::_Vector_base<int, gmx::Allocator<int, gmx::AlignedAllocationPolicy>>::_Vector_impl" }
%"struct.std::_Vector_base<int, gmx::Allocator<int, gmx::AlignedAllocationPolicy>>::_Vector_impl" = type { %"struct.std::_Vector_base<int, gmx::Allocator<int, gmx::AlignedAllocationPolicy>>::_Vector_impl_data" }
%"struct.std::_Vector_base<int, gmx::Allocator<int, gmx::AlignedAllocationPolicy>>::_Vector_impl_data" = type { ptr, ptr, ptr }
%"class.gmx::ArrayRef" = type { %"struct.gmx::ArrayRefIter", %"struct.gmx::ArrayRefIter" }
%"struct.gmx::ArrayRefIter" = type { ptr }

; Function Attrs: inlinehint mustprogress nounwind uwtable
define linkonce_odr void @_ZSt8_DestroyIiEvPT_(ptr noundef %0) #5 comdat {
  %2 = alloca ptr, align 8
  store ptr %0, ptr %2, align 8, !tbaa !43
  ret void
}

; Function Attrs: mustprogress nounwind uwtable
define linkonce_odr void @_ZNSt16allocator_traitsIN3gmx9AllocatorIiNS0_23AlignedAllocationPolicyEEEE10_S_destroyIS3_iEEvRT_PT0_z(ptr noundef nonnull align 1 dereferenceable(1) %0, ptr noundef %1, ...) #1 comdat align 2 personality ptr @__gxx_personality_v0 {
  %3 = alloca ptr, align 8
  %4 = alloca ptr, align 8
  store ptr %0, ptr %3, align 8, !tbaa !44
  store ptr %1, ptr %4, align 8, !tbaa !43
  %5 = load ptr, ptr %4, align 8, !tbaa !43
  invoke void @_ZSt8_DestroyIiEvPT_(ptr noundef %5)
          to label %6 unwind label %7

6:                                                ; preds = %2
  ret void

7:                                                ; preds = %2
  %8 = landingpad { ptr, i32 }
          catch ptr null
  %9 = extractvalue { ptr, i32 } %8, 0
  call void @__clang_call_terminate(ptr %9) #15
  unreachable
}

; Function Attrs: mustprogress nounwind uwtable
define linkonce_odr void @_ZNSt16allocator_traitsIN3gmx9AllocatorIiNS0_23AlignedAllocationPolicyEEEE7destroyIiEEvRS3_PT_(ptr noundef nonnull align 1 dereferenceable(1) %0, ptr noundef %1) #1 comdat align 2 {
  %3 = alloca ptr, align 8
  %4 = alloca ptr, align 8
  store ptr %0, ptr %3, align 8, !tbaa !44
  store ptr %1, ptr %4, align 8, !tbaa !43
  %5 = load ptr, ptr %3, align 8, !tbaa !44
  %6 = load ptr, ptr %4, align 8, !tbaa !43
  call void (ptr, ptr, ...) @_ZNSt16allocator_traitsIN3gmx9AllocatorIiNS0_23AlignedAllocationPolicyEEEE10_S_destroyIS3_iEEvRT_PT0_z(ptr noundef nonnull align 1 dereferenceable(1) %5, ptr noundef %6, i32 noundef 0) #13
  ret void
}

; Function Attrs: mustprogress nounwind uwtable
define linkonce_odr noundef nonnull align 4 dereferenceable(4) ptr @_ZNK3gmx12ArrayRefIterIKiEdeEv(ptr noundef nonnull align 8 dereferenceable(8) %0) #1 comdat align 2 {
  %2 = alloca ptr, align 8
  store ptr %0, ptr %2, align 8, !tbaa !39
  %3 = load ptr, ptr %2, align 8
  %4 = getelementptr inbounds nuw %"struct.gmx::ArrayRefIter", ptr %3, i32 0, i32 0
  %5 = load ptr, ptr %4, align 8, !tbaa !41
  ret ptr %5
}

; Function Attrs: mustprogress nounwind uwtable
define linkonce_odr noundef nonnull align 8 dereferenceable(8) ptr @_ZN3gmx12ArrayRefIterIKiEpLEl(ptr noundef nonnull align 8 dereferenceable(8) %0, i64 noundef %1) #1 comdat align 2 {
  %3 = alloca ptr, align 8
  %4 = alloca i64, align 8
  store ptr %0, ptr %3, align 8, !tbaa !39
  store i64 %1, ptr %4, align 8, !tbaa !37
  %5 = load ptr, ptr %3, align 8
  %6 = load i64, ptr %4, align 8, !tbaa !37
  %7 = getelementptr inbounds nuw %"struct.gmx::ArrayRefIter", ptr %5, i32 0, i32 0
  %8 = load ptr, ptr %7, align 8, !tbaa !41
  %9 = getelementptr inbounds i32, ptr %8, i64 %6
  store ptr %9, ptr %7, align 8, !tbaa !41
  ret ptr %5
}

; Function Attrs: mustprogress nounwind uwtable
define linkonce_odr noundef nonnull align 8 dereferenceable(8) ptr @_ZNK3gmx5boost14stl_interfaces2v118iterator_interfaceINS_12ArrayRefIterIKiEESt26random_access_iterator_tagS5_RS5_PS5_lvE7derivedEv(ptr noundef nonnull align 1 dereferenceable(1) %0) #1 comdat align 2 {
  %2 = alloca ptr, align 8
  store ptr %0, ptr %2, align 8, !tbaa !60
  %3 = load ptr, ptr %2, align 8
  ret ptr %3
}

; Function Attrs: noinline noreturn nounwind uwtable
define linkonce_odr hidden void @__clang_call_terminate(ptr noundef %0) #4 comdat {
  %2 = call ptr @__cxa_begin_catch(ptr %0) #13
  call void @_ZSt9terminatev() #15
  unreachable
}

; Function Attrs: mustprogress nounwind uwtable
define linkonce_odr void @_ZSt8_DestroyIPiN3gmx9AllocatorIiNS1_23AlignedAllocationPolicyEEEEvT_S5_RT0_(ptr noundef %0, ptr noundef %1, ptr noundef nonnull align 1 dereferenceable(1) %2) #1 comdat {
  %4 = alloca ptr, align 8
  %5 = alloca ptr, align 8
  %6 = alloca ptr, align 8
  store ptr %0, ptr %4, align 8, !tbaa !43
  store ptr %1, ptr %5, align 8, !tbaa !43
  store ptr %2, ptr %6, align 8, !tbaa !44
  br label %7

7:                                                ; preds = %14, %3
  %8 = load ptr, ptr %4, align 8, !tbaa !43
  %9 = load ptr, ptr %5, align 8, !tbaa !43
  %10 = icmp ne ptr %8, %9
  br i1 %10, label %11, label %17

11:                                               ; preds = %7
  %12 = load ptr, ptr %6, align 8, !tbaa !44
  %13 = load ptr, ptr %4, align 8, !tbaa !43
  call void @_ZNSt16allocator_traitsIN3gmx9AllocatorIiNS0_23AlignedAllocationPolicyEEEE7destroyIiEEvRS3_PT_(ptr noundef nonnull align 1 dereferenceable(1) %12, ptr noundef %13) #13
  br label %14

14:                                               ; preds = %11
  %15 = load ptr, ptr %4, align 8, !tbaa !43
  %16 = getelementptr inbounds nuw i32, ptr %15, i32 1
  store ptr %16, ptr %4, align 8, !tbaa !43
  br label %7, !llvm.loop !59

17:                                               ; preds = %7
  ret void
}

; Function Attrs: mustprogress nounwind uwtable
define linkonce_odr noundef nonnull align 1 dereferenceable(1) ptr @_ZNSt12_Vector_baseIiN3gmx9AllocatorIiNS0_23AlignedAllocationPolicyEEEE19_M_get_Tp_allocatorEv(ptr noundef nonnull align 8 dereferenceable(24) %0) #1 comdat align 2 {
  %2 = alloca ptr, align 8
  store ptr %0, ptr %2, align 8, !tbaa !24
  %3 = load ptr, ptr %2, align 8
  %4 = getelementptr inbounds nuw %"struct.std::_Vector_base", ptr %3, i32 0, i32 0
  ret ptr %4
}

; Function Attrs: mustprogress nounwind uwtable
define linkonce_odr noundef i64 @_ZNK3gmx12ArrayRefIterIKiEmiES2_(ptr noundef nonnull align 8 dereferenceable(8) %0, ptr %1) #1 comdat align 2 {
  %3 = alloca %"struct.gmx::ArrayRefIter", align 8
  %4 = alloca ptr, align 8
  %5 = getelementptr inbounds nuw %"struct.gmx::ArrayRefIter", ptr %3, i32 0, i32 0
  store ptr %1, ptr %5, align 8
  store ptr %0, ptr %4, align 8, !tbaa !39
  %6 = load ptr, ptr %4, align 8
  %7 = getelementptr inbounds nuw %"struct.gmx::ArrayRefIter", ptr %6, i32 0, i32 0
  %8 = load ptr, ptr %7, align 8, !tbaa !41
  %9 = getelementptr inbounds nuw %"struct.gmx::ArrayRefIter", ptr %3, i32 0, i32 0
  %10 = load ptr, ptr %9, align 8, !tbaa !41
  %11 = ptrtoint ptr %8 to i64
  %12 = ptrtoint ptr %10 to i64
  %13 = sub i64 %11, %12
  %14 = sdiv exact i64 %13, 4
  ret i64 %14
}

; Function Attrs: mustprogress nounwind uwtable
define linkonce_odr noundef nonnull align 4 dereferenceable(4) ptr @_ZNK3gmx5boost14stl_interfaces2v118iterator_interfaceINS_12ArrayRefIterIKiEESt26random_access_iterator_tagS5_RS5_PS5_lvEixIS6_EEDTcmpLclsr3stdE7declvalIRT_EEfp_declsr3stdE7declvalISD_EEEl(ptr noundef nonnull align 1 dereferenceable(1) %0, i64 noundef %1) #1 comdat align 2 {
  %3 = alloca ptr, align 8
  %4 = alloca i64, align 8
  %5 = alloca %"struct.gmx::ArrayRefIter", align 8
  store ptr %0, ptr %3, align 8, !tbaa !60
  store i64 %1, ptr %4, align 8, !tbaa !37
  %6 = load ptr, ptr %3, align 8
  call void @llvm.lifetime.start.p0(i64 8, ptr %5) #13
  %7 = call noundef nonnull align 8 dereferenceable(8) ptr @_ZNK3gmx5boost14stl_interfaces2v118iterator_interfaceINS_12ArrayRefIterIKiEESt26random_access_iterator_tagS5_RS5_PS5_lvE7derivedEv(ptr noundef nonnull align 1 dereferenceable(1) %6) #13
  call void @llvm.memcpy.p0.p0.i64(ptr align 8 %5, ptr align 8 %7, i64 8, i1 false)
  %8 = load i64, ptr %4, align 8, !tbaa !37
  %9 = call noundef nonnull align 8 dereferenceable(8) ptr @_ZN3gmx12ArrayRefIterIKiEpLEl(ptr noundef nonnull align 8 dereferenceable(8) %5, i64 noundef %8) #13
  %10 = call noundef nonnull align 4 dereferenceable(4) ptr @_ZNK3gmx12ArrayRefIterIKiEdeEv(ptr noundef nonnull align 8 dereferenceable(8) %5) #13
  call void @llvm.lifetime.end.p0(i64 8, ptr %5) #13
  ret ptr %10
}

; Function Attrs: mustprogress nounwind uwtable
define linkonce_odr void @_ZNSt6vectorIiN3gmx9AllocatorIiNS0_23AlignedAllocationPolicyEEEE15_M_erase_at_endEPi(ptr noundef nonnull align 8 dereferenceable(24) %0, ptr noundef %1) #1 comdat align 2 personality ptr @__gxx_personality_v0 {
  %3 = alloca ptr, align 8
  %4 = alloca ptr, align 8
  %5 = alloca i64, align 8
  store ptr %0, ptr %3, align 8, !tbaa !22
  store ptr %1, ptr %4, align 8, !tbaa !43
  %6 = load ptr, ptr %3, align 8
  call void @llvm.lifetime.start.p0(i64 8, ptr %5) #13
  %7 = getelementptr inbounds nuw %"struct.std::_Vector_base", ptr %6, i32 0, i32 0
  %8 = getelementptr inbounds nuw %"struct.std::_Vector_base<int, gmx::Allocator<int, gmx::AlignedAllocationPolicy>>::_Vector_impl_data", ptr %7, i32 0, i32 1
  %9 = load ptr, ptr %8, align 8, !tbaa !31
  %10 = load ptr, ptr %4, align 8, !tbaa !43
  %11 = ptrtoint ptr %9 to i64
  %12 = ptrtoint ptr %10 to i64
  %13 = sub i64 %11, %12
  %14 = sdiv exact i64 %13, 4
  store i64 %14, ptr %5, align 8, !tbaa !37
  %15 = load i64, ptr %5, align 8, !tbaa !37
  %16 = icmp ne i64 %15, 0
  br i1 %16, label %17, label %27

17:                                               ; preds = %2
  %18 = load ptr, ptr %4, align 8, !tbaa !43
  %19 = getelementptr inbounds nuw %"struct.std::_Vector_base", ptr %6, i32 0, i32 0
  %20 = getelementptr inbounds nuw %"struct.std::_Vector_base<int, gmx::Allocator<int, gmx::AlignedAllocationPolicy>>::_Vector_impl_data", ptr %19, i32 0, i32 1
  %21 = load ptr, ptr %20, align 8, !tbaa !31
  %22 = call noundef nonnull align 1 dereferenceable(1) ptr @_ZNSt12_Vector_baseIiN3gmx9AllocatorIiNS0_23AlignedAllocationPolicyEEEE19_M_get_Tp_allocatorEv(ptr noundef nonnull align 8 dereferenceable(24) %6) #13
  invoke void @_ZSt8_DestroyIPiN3gmx9AllocatorIiNS1_23AlignedAllocationPolicyEEEEvT_S5_RT0_(ptr noundef %18, ptr noundef %21, ptr noundef nonnull align 1 dereferenceable(1) %22)
          to label %23 unwind label %28

23:                                               ; preds = %17
  %24 = load ptr, ptr %4, align 8, !tbaa !43
  %25 = getelementptr inbounds nuw %"struct.std::_Vector_base", ptr %6, i32 0, i32 0
  %26 = getelementptr inbounds nuw %"struct.std::_Vector_base<int, gmx::Allocator<int, gmx::AlignedAllocationPolicy>>::_Vector_impl_data", ptr %25, i32 0, i32 1
  store ptr %24, ptr %26, align 8, !tbaa !31
  br label %27

27:                                               ; preds = %23, %2
  call void @llvm.lifetime.end.p0(i64 8, ptr %5) #13
  ret void

28:                                               ; preds = %17
  %29 = landingpad { ptr, i32 }
          catch ptr null
  %30 = extractvalue { ptr, i32 } %29, 0
  call void @__clang_call_terminate(ptr %30) #15
  unreachable
}

; Function Attrs: mustprogress nounwind uwtable
define linkonce_odr noundef i64 @_ZNKSt6vectorIiN3gmx9AllocatorIiNS0_23AlignedAllocationPolicyEEEE4sizeEv(ptr noundef nonnull align 8 dereferenceable(24) %0) #1 comdat align 2 {
  %2 = alloca ptr, align 8
  store ptr %0, ptr %2, align 8, !tbaa !22
  %3 = load ptr, ptr %2, align 8
  %4 = getelementptr inbounds nuw %"struct.std::_Vector_base", ptr %3, i32 0, i32 0
  %5 = getelementptr inbounds nuw %"struct.std::_Vector_base<int, gmx::Allocator<int, gmx::AlignedAllocationPolicy>>::_Vector_impl_data", ptr %4, i32 0, i32 1
  %6 = load ptr, ptr %5, align 8, !tbaa !31
  %7 = getelementptr inbounds nuw %"struct.std::_Vector_base", ptr %3, i32 0, i32 0
  %8 = getelementptr inbounds nuw %"struct.std::_Vector_base<int, gmx::Allocator<int, gmx::AlignedAllocationPolicy>>::_Vector_impl_data", ptr %7, i32 0, i32 0
  %9 = load ptr, ptr %8, align 8, !tbaa !30
  %10 = ptrtoint ptr %6 to i64
  %11 = ptrtoint ptr %9 to i64
  %12 = sub i64 %10, %11
  %13 = sdiv exact i64 %12, 4
  ret i64 %13
}

; Function Attrs: mustprogress nounwind uwtable
define linkonce_odr noundef i64 @_ZNK3gmx8ArrayRefIKiE4sizeEv(ptr noundef nonnull align 8 dereferenceable(16) %0) #1 comdat align 2 {
  %2 = alloca ptr, align 8
  %3 = alloca %"struct.gmx::ArrayRefIter", align 8
  store ptr %0, ptr %2, align 8, !tbaa !35
  %4 = load ptr, ptr %2, align 8
  %5 = getelementptr inbounds nuw %"class.gmx::ArrayRef", ptr %4, i32 0, i32 1
  %6 = getelementptr inbounds nuw %"class.gmx::ArrayRef", ptr %4, i32 0, i32 0
  call void @llvm.memcpy.p0.p0.i64(ptr align 8 %3, ptr align 8 %6, i64 8, i1 false)
  %7 = getelementptr inbounds nuw %"struct.gmx::ArrayRefIter", ptr %3, i32 0, i32 0
  %8 = load ptr, ptr %7, align 8
  %9 = call noundef i64 @_ZNK3gmx12ArrayRefIterIKiEmiES2_(ptr noundef nonnull align 8 dereferenceable(8) %5, ptr %8) #13
  ret i64 %9
}

; Function Attrs: mustprogress nounwind uwtable
define linkonce_odr noundef nonnull align 4 dereferenceable(4) ptr @_ZNSt6vectorIiN3gmx9AllocatorIiNS0_23AlignedAllocationPolicyEEEEixEm(ptr noundef nonnull align 8 dereferenceable(24) %0, i64 noundef %1) #1 comdat align 2 {
  %3 = alloca ptr, align 8
  %4 = alloca i64, align 8
  store ptr %0, ptr %3, align 8, !tbaa !22
  store i64 %1, ptr %4, align 8, !tbaa !37
  %5 = load ptr, ptr %3, align 8
  %6 = getelementptr inbounds nuw %"struct.std::_Vector_base", ptr %5, i32 0, i32 0
  %7 = getelementptr inbounds nuw %"struct.std::_Vector_base<int, gmx::Allocator<int, gmx::AlignedAllocationPolicy>>::_Vector_impl_data", ptr %6, i32 0, i32 0
  %8 = load ptr, ptr %7, align 8, !tbaa !30
  %9 = load i64, ptr %4, align 8, !tbaa !37
  %10 = getelementptr inbounds nuw i32, ptr %8, i64 %9
  ret ptr %10
}

; Function Attrs: mustprogress nounwind uwtable
define linkonce_odr noundef nonnull align 4 dereferenceable(4) ptr @_ZNK3gmx8ArrayRefIKiEixEm(ptr noundef nonnull align 8 dereferenceable(16) %0, i64 noundef %1) #1 comdat align 2 {
  %3 = alloca ptr, align 8
  %4 = alloca i64, align 8
  store ptr %0, ptr %3, align 8, !tbaa !35
  store i64 %1, ptr %4, align 8, !tbaa !37
  %5 = load ptr, ptr %3, align 8
  %6 = getelementptr inbounds nuw %"class.gmx::ArrayRef", ptr %5, i32 0, i32 0
  %7 = load i64, ptr %4, align 8, !tbaa !37
  %8 = call noundef nonnull align 4 dereferenceable(4) ptr @_ZNK3gmx5boost14stl_interfaces2v118iterator_interfaceINS_12ArrayRefIterIKiEESt26random_access_iterator_tagS5_RS5_PS5_lvEixIS6_EEDTcmpLclsr3stdE7declvalIRT_EEfp_declsr3stdE7declvalISD_EEEl(ptr noundef nonnull align 1 dereferenceable(1) %6, i64 noundef %7) #13
  ret ptr %8
}

; Function Attrs: mustprogress uwtable
define linkonce_odr void @_ZNSt6vectorIiN3gmx9AllocatorIiNS0_23AlignedAllocationPolicyEEEE6resizeEm(ptr noundef nonnull align 8 dereferenceable(24) %0, i64 noundef %1) #0 comdat align 2 {
  %3 = alloca ptr, align 8
  %4 = alloca i64, align 8
  store ptr %0, ptr %3, align 8, !tbaa !22
  store i64 %1, ptr %4, align 8, !tbaa !37
  %5 = load ptr, ptr %3, align 8
  %6 = load i64, ptr %4, align 8, !tbaa !37
  %7 = call noundef i64 @_ZNKSt6vectorIiN3gmx9AllocatorIiNS0_23AlignedAllocationPolicyEEEE4sizeEv(ptr noundef nonnull align 8 dereferenceable(24) %5) #13
  %8 = icmp ugt i64 %6, %7
  br i1 %8, label %9, label %13

9:                                                ; preds = %2
  %10 = load i64, ptr %4, align 8, !tbaa !37
  %11 = call noundef i64 @_ZNKSt6vectorIiN3gmx9AllocatorIiNS0_23AlignedAllocationPolicyEEEE4sizeEv(ptr noundef nonnull align 8 dereferenceable(24) %5) #13
  %12 = sub i64 %10, %11
  call void @_ZNSt6vectorIiN3gmx9AllocatorIiNS0_23AlignedAllocationPolicyEEEE17_M_default_appendEm(ptr noundef nonnull align 8 dereferenceable(24) %5, i64 noundef %12)
  br label %24

13:                                               ; preds = %2
  %14 = load i64, ptr %4, align 8, !tbaa !37
  %15 = call noundef i64 @_ZNKSt6vectorIiN3gmx9AllocatorIiNS0_23AlignedAllocationPolicyEEEE4sizeEv(ptr noundef nonnull align 8 dereferenceable(24) %5) #13
  %16 = icmp ult i64 %14, %15
  br i1 %16, label %17, label %23

17:                                               ; preds = %13
  %18 = getelementptr inbounds nuw %"struct.std::_Vector_base", ptr %5, i32 0, i32 0
  %19 = getelementptr inbounds nuw %"struct.std::_Vector_base<int, gmx::Allocator<int, gmx::AlignedAllocationPolicy>>::_Vector_impl_data", ptr %18, i32 0, i32 0
  %20 = load ptr, ptr %19, align 8, !tbaa !30
  %21 = load i64, ptr %4, align 8, !tbaa !37
  %22 = getelementptr inbounds nuw i32, ptr %20, i64 %21
  call void @_ZNSt6vectorIiN3gmx9AllocatorIiNS0_23AlignedAllocationPolicyEEEE15_M_erase_at_endEPi(ptr noundef nonnull align 8 dereferenceable(24) %5, ptr noundef %22) #13
  br label %23

23:                                               ; preds = %17, %13
  br label %24

24:                                               ; preds = %23, %9
  ret void
}

; Function Attrs: mustprogress uwtable
define linkonce_odr noundef i64 @_ZNK3gmx8ArrayRefIKiE5ssizeEv(ptr noundef nonnull align 8 dereferenceable(16) %0) #0 comdat align 2 {
  %2 = alloca ptr, align 8
  store ptr %0, ptr %2, align 8, !tbaa !35
  %3 = load ptr, ptr %2, align 8
  %4 = call noundef i64 @_ZNK3gmx8ArrayRefIKiE4sizeEv(ptr noundef nonnull align 8 dereferenceable(16) %3)
  ret i64 %4
}

; Function Attrs: mustprogress uwtable
define void @_ZN3gmx22EnergyGroupsPerCluster15setEnergyGroupsENS_8ArrayRefIKiEE(ptr noundef nonnull align 8 dereferenceable(40) %0, ptr %1, ptr %2) #0 align 2 {
  %4 = alloca %"class.gmx::ArrayRef", align 8
  %5 = alloca ptr, align 8
  %6 = alloca i32, align 4
  %7 = alloca i32, align 4
  %8 = alloca i32, align 4
  %9 = alloca i32, align 4
  %10 = alloca i32, align 4
  %11 = getelementptr inbounds nuw { ptr, ptr }, ptr %4, i32 0, i32 0
  store ptr %1, ptr %11, align 8
  %12 = getelementptr inbounds nuw { ptr, ptr }, ptr %4, i32 0, i32 1
  store ptr %2, ptr %12, align 8
  store ptr %0, ptr %5, align 8, !tbaa !4
  %13 = load ptr, ptr %5, align 8
  call void @llvm.lifetime.start.p0(i64 4, ptr %6) #13
  %14 = call noundef i64 @_ZNK3gmx8ArrayRefIKiE5ssizeEv(ptr noundef nonnull align 8 dereferenceable(16) %4)
  %15 = getelementptr inbounds nuw %"class.gmx::EnergyGroupsPerCluster", ptr %13, i32 0, i32 3
  %16 = load i32, ptr %15, align 4, !tbaa !19
  %17 = sext i32 %16 to i64
  %18 = sdiv i64 %14, %17
  %19 = trunc i64 %18 to i32
  store i32 %19, ptr %6, align 4, !tbaa !9
  %20 = getelementptr inbounds nuw %"class.gmx::EnergyGroupsPerCluster", ptr %13, i32 0, i32 1
  %21 = load i32, ptr %6, align 4, !tbaa !9
  %22 = sext i32 %21 to i64
  call void @_ZNSt6vectorIiN3gmx9AllocatorIiNS0_23AlignedAllocationPolicyEEEE6resizeEm(ptr noundef nonnull align 8 dereferenceable(24) %20, i64 noundef %22)
  call void @llvm.lifetime.start.p0(i64 4, ptr %7) #13
  store i32 0, ptr %7, align 4, !tbaa !9
  br label %23

23:                                               ; preds = %61, %3
  %24 = load i32, ptr %7, align 4, !tbaa !9
  %25 = load i32, ptr %6, align 4, !tbaa !9
  %26 = icmp slt i32 %24, %25
  br i1 %26, label %28, label %27

27:                                               ; preds = %23
  store i32 2, ptr %8, align 4
  call void @llvm.lifetime.end.p0(i64 4, ptr %7) #13
  br label %64

28:                                               ; preds = %23
  call void @llvm.lifetime.start.p0(i64 4, ptr %9) #13
  store i32 0, ptr %9, align 4, !tbaa !9
  call void @llvm.lifetime.start.p0(i64 4, ptr %10) #13
  store i32 0, ptr %10, align 4, !tbaa !9
  br label %29

29:                                               ; preds = %52, %28
  %30 = load i32, ptr %10, align 4, !tbaa !9
  %31 = getelementptr inbounds nuw %"class.gmx::EnergyGroupsPerCluster", ptr %13, i32 0, i32 3
  %32 = load i32, ptr %31, align 4, !tbaa !19
  %33 = icmp slt i32 %30, %32
  br i1 %33, label %35, label %34

34:                                               ; preds = %29
  store i32 5, ptr %8, align 4
  call void @llvm.lifetime.end.p0(i64 4, ptr %10) #13
  br label %55

35:                                               ; preds = %29
  %36 = load i32, ptr %7, align 4, !tbaa !9
  %37 = getelementptr inbounds nuw %"class.gmx::EnergyGroupsPerCluster", ptr %13, i32 0, i32 3
  %38 = load i32, ptr %37, align 4, !tbaa !19
  %39 = mul nsw i32 %36, %38
  %40 = load i32, ptr %10, align 4, !tbaa !9
  %41 = add nsw i32 %39, %40
  %42 = sext i32 %41 to i64
  %43 = call noundef nonnull align 4 dereferenceable(4) ptr @_ZNK3gmx8ArrayRefIKiEixEm(ptr noundef nonnull align 8 dereferenceable(16) %4, i64 noundef %42)
  %44 = load i32, ptr %43, align 4, !tbaa !9
  %45 = load i32, ptr %10, align 4, !tbaa !9
  %46 = getelementptr inbounds nuw %"class.gmx::EnergyGroupsPerCluster", ptr %13, i32 0, i32 0
  %47 = load i32, ptr %46, align 8, !tbaa !11
  %48 = mul nsw i32 %45, %47
  %49 = shl i32 %44, %48
  %50 = load i32, ptr %9, align 4, !tbaa !9
  %51 = or i32 %50, %49
  store i32 %51, ptr %9, align 4, !tbaa !9
  br label %52

52:                                               ; preds = %35
  %53 = load i32, ptr %10, align 4, !tbaa !9
  %54 = add nsw i32 %53, 1
  store i32 %54, ptr %10, align 4, !tbaa !9
  br label %29, !llvm.loop !33

55:                                               ; preds = %34
  %56 = load i32, ptr %9, align 4, !tbaa !9
  %57 = getelementptr inbounds nuw %"class.gmx::EnergyGroupsPerCluster", ptr %13, i32 0, i32 1
  %58 = load i32, ptr %7, align 4, !tbaa !9
  %59 = sext i32 %58 to i64
  %60 = call noundef nonnull align 4 dereferenceable(4) ptr @_ZNSt6vectorIiN3gmx9AllocatorIiNS0_23AlignedAllocationPolicyEEEEixEm(ptr noundef nonnull align 8 dereferenceable(24) %57, i64 noundef %59) #13
  store i32 %56, ptr %60, align 4, !tbaa !9
  call void @llvm.lifetime.end.p0(i64 4, ptr %9) #13
  br label %61

61:                                               ; preds = %55
  %62 = load i32, ptr %7, align 4, !tbaa !9
  %63 = add nsw i32 %62, 1
  store i32 %63, ptr %7, align 4, !tbaa !9
  br label %23, !llvm.loop !34

64:                                               ; preds = %27
  call void @llvm.lifetime.end.p0(i64 4, ptr %6) #13
  ret void
}