; Function Attrs: mustprogress uwtable
define void @_ZN3gmx22EnergyGroupsPerCluster15setEnergyGroupsENS_8ArrayRefIKiEE(ptr noundef nonnull align 8 dereferenceable(40) %0, ptr %1, ptr %2) local_unnamed_addr #1 align 2 personality ptr @__gxx_personality_v0 {
  %4 = ptrtoint ptr %2 to i64
  %5 = ptrtoint ptr %1 to i64
  %6 = sub i64 %4, %5
  %7 = ashr exact i64 %6, 2
  %8 = getelementptr inbounds nuw i8, ptr %0, i64 36
  %9 = load i32, ptr %8, align 4, !tbaa !18
  %10 = sext i32 %9 to i64
  %11 = sdiv i64 %7, %10
  %12 = trunc i64 %11 to i32
  %13 = getelementptr inbounds nuw i8, ptr %0, i64 8
  %sext = shl i64 %11, 32
  %14 = ashr exact i64 %sext, 32
  %15 = getelementptr inbounds nuw i8, ptr %0, i64 16
  %16 = load ptr, ptr %15, align 8, !tbaa !19
  %17 = load ptr, ptr %13, align 8, !tbaa !20
  %18 = ptrtoint ptr %16 to i64
  %19 = ptrtoint ptr %17 to i64
  %20 = sub i64 %18, %19
  %21 = ashr exact i64 %20, 2
  %22 = icmp ugt i64 %14, %21
  br i1 %22, label %23, label %25

23:                                               ; preds = %3
  %24 = sub nuw nsw i64 %14, %21
  tail call void @_ZNSt6vectorIiN3gmx9AllocatorIiNS0_23AlignedAllocationPolicyEEEE17_M_default_appendEm(ptr noundef nonnull align 8 dereferenceable(24) %13, i64 noundef %24)
  br label %_ZNSt6vectorIiN3gmx9AllocatorIiNS0_23AlignedAllocationPolicyEEEE6resizeEm.exit

25:                                               ; preds = %3
  %26 = icmp ult i64 %14, %21
  br i1 %26, label %27, label %_ZNSt6vectorIiN3gmx9AllocatorIiNS0_23AlignedAllocationPolicyEEEE6resizeEm.exit

27:                                               ; preds = %25
  %28 = getelementptr inbounds nuw i32, ptr %17, i64 %14
  %.not.i.i = icmp eq ptr %16, %28
  br i1 %.not.i.i, label %_ZNSt6vectorIiN3gmx9AllocatorIiNS0_23AlignedAllocationPolicyEEEE6resizeEm.exit, label %29

29:                                               ; preds = %27
  store ptr %28, ptr %15, align 8, !tbaa !19
  br label %_ZNSt6vectorIiN3gmx9AllocatorIiNS0_23AlignedAllocationPolicyEEEE6resizeEm.exit

_ZNSt6vectorIiN3gmx9AllocatorIiNS0_23AlignedAllocationPolicyEEEE6resizeEm.exit: ; preds = %23, %25, %27, %29
  %30 = icmp sgt i32 %12, 0
  br i1 %30, label %.preheader.lr.ph, label %._crit_edge18

.preheader.lr.ph:                                 ; preds = %_ZNSt6vectorIiN3gmx9AllocatorIiNS0_23AlignedAllocationPolicyEEEE6resizeEm.exit
  %31 = load ptr, ptr %13, align 8, !tbaa !20
  %wide.trip.count23 = and i64 %11, 2147483647
  br label %.preheader

.preheader:                                       ; preds = %.preheader.lr.ph, %._crit_edge
  %indvars.iv20 = phi i64 [ 0, %.preheader.lr.ph ], [ %indvars.iv.next21, %._crit_edge ]
  %32 = load i32, ptr %8, align 4, !tbaa !18
  %33 = icmp sgt i32 %32, 0
  br i1 %33, label %.lr.ph, label %._crit_edge

.lr.ph:                                           ; preds = %.preheader
  %34 = zext nneg i32 %32 to i64
  %35 = mul nuw nsw i64 %indvars.iv20, %34
  %36 = load i32, ptr %0, align 8, !tbaa !6
  %37 = getelementptr inbounds nuw i32, ptr %1, i64 %35
  br label %39

._crit_edge18:                                    ; preds = %._crit_edge, %_ZNSt6vectorIiN3gmx9AllocatorIiNS0_23AlignedAllocationPolicyEEEE6resizeEm.exit
  ret void

._crit_edge:                                      ; preds = %39, %.preheader
  %.012.lcssa = phi i32 [ 0, %.preheader ], [ %45, %39 ]
  %38 = getelementptr inbounds nuw i32, ptr %31, i64 %indvars.iv20
  store i32 %.012.lcssa, ptr %38, align 4, !tbaa !21
  %indvars.iv.next21 = add nuw nsw i64 %indvars.iv20, 1
  %exitcond24.not = icmp eq i64 %indvars.iv.next21, %wide.trip.count23
  br i1 %exitcond24.not, label %._crit_edge18, label %.preheader, !llvm.loop !22

39:                                               ; preds = %.lr.ph, %39
  %indvars.iv = phi i64 [ 0, %.lr.ph ], [ %indvars.iv.next, %39 ]
  %.01215 = phi i32 [ 0, %.lr.ph ], [ %45, %39 ]
  %40 = getelementptr inbounds nuw i32, ptr %37, i64 %indvars.iv
  %41 = load i32, ptr %40, align 4, !tbaa !21
  %42 = trunc i64 %indvars.iv to i32
  %43 = mul i32 %36, %42
  %44 = shl i32 %41, %43
  %45 = or i32 %44, %.01215
  %indvars.iv.next = add nuw nsw i64 %indvars.iv, 1
  %exitcond.not = icmp eq i64 %indvars.iv.next, %34
  br i1 %exitcond.not, label %._crit_edge, label %39, !llvm.loop !23
}